target datalayout = "e-m:e-p270:32:32-p271:32:32-p272:64:64-i64:64-i128:128-f80:128-n8:16:32:64-S128"
target triple = "x86_64-pc-linux-gnu"

%struct.H5O_loc_t = type { ptr, i64, i8 }

@H5O_init_g = external global i8, align 1
@H5_libterm_g = external global i8, align 1
@.str.1 = private unnamed_addr constant [101 x i8] c"generated/home/dtcxzyw/WorkSpace/Projects/compilers/llvm-opt-benchmark/bench/hdf5/hdf5/src/H5Oattr.c\00", align 1
@H5E_ATTR_g = external global i64, align 8
@.str.4 = private unnamed_addr constant [103 x i8] c"generated/home/dtcxzyw/WorkSpace/Projects/compilers/llvm-opt-benchmark/bench/hdf5/hdf5/src/H5Oshared.h\00", align 1
@H5E_OHDR_g = external global i64, align 8
@H5E_CANTCOPY_g = external global i64, align 8
@.str.32 = private unnamed_addr constant [46 x i8] c"unable to copy native message to another file\00", align 1
@H5E_WRITEERROR_g = external global i64, align 8
@.str.35 = private unnamed_addr constant [21 x i8] c"can't copy attribute\00", align 1
@__func__.H5O__attr_shared_post_copy_file = private unnamed_addr constant [32 x i8] c"H5O__attr_shared_post_copy_file\00", align 1
@.str.36 = private unnamed_addr constant [42 x i8] c"unable to fix shared message in post copy\00", align 1
@__func__.H5O__attr_post_copy_file = private unnamed_addr constant [25 x i8] c"H5O__attr_post_copy_file\00", align 1

; Function Attrs: nounwind uwtable
define internal i32 @H5O__attr_post_copy_file(ptr noundef %0, ptr noundef %1, ptr noundef %2, ptr noundef %3, ptr noundef %4) #1 {
  %6 = alloca ptr, align 8
  %7 = alloca ptr, align 8
  %8 = alloca ptr, align 8
  %9 = alloca ptr, align 8
  %10 = alloca ptr, align 8
  %11 = alloca i32, align 4
  %12 = alloca i8, align 1
  store ptr %0, ptr %6, align 8, !tbaa !48
  store ptr %1, ptr %7, align 8, !tbaa !18
  store ptr %2, ptr %8, align 8, !tbaa !48
  store ptr %3, ptr %9, align 8, !tbaa !18
  store ptr %4, ptr %10, align 8, !tbaa !31
  call void @llvm.lifetime.start.p0(i64 4, ptr %11) #9
  store i32 0, ptr %11, align 4, !tbaa !10
  call void @llvm.lifetime.start.p0(i64 1, ptr %12) #9
  store i8 0, ptr %12, align 1, !tbaa !19
  %13 = load i8, ptr @H5O_init_g, align 1, !tbaa !19, !range !21, !noundef !22
  %14 = trunc i8 %13 to i1
  br i1 %14, label %19, label %15

15:                                               ; preds = %5
  %16 = load i8, ptr @H5_libterm_g, align 1, !tbaa !19, !range !21, !noundef !22
  %17 = trunc i8 %16 to i1
  %18 = xor i1 %17, true
  br label %19

19:                                               ; preds = %15, %5
  %20 = phi i1 [ true, %5 ], [ %18, %15 ]
  %21 = xor i1 %20, true
  %22 = xor i1 %21, true
  %23 = zext i1 %22 to i32
  %24 = sext i32 %23 to i64
  %25 = call i64 @llvm.expect.i64(i64 %24, i64 1)
  %26 = icmp ne i64 %25, 0
  br i1 %26, label %27, label %56

27:                                               ; preds = %19
  %28 = load ptr, ptr %6, align 8, !tbaa !48
  %29 = load ptr, ptr %7, align 8, !tbaa !18
  %30 = load ptr, ptr %8, align 8, !tbaa !48
  %31 = load ptr, ptr %9, align 8, !tbaa !18
  %32 = load ptr, ptr %10, align 8, !tbaa !31
  %33 = call i32 @H5A__attr_post_copy_file(ptr noundef %28, ptr noundef %29, ptr noundef %30, ptr noundef %31, ptr noundef %32)
  %34 = icmp slt i32 %33, 0
  br i1 %34, label %35, label %54

35:                                               ; preds = %27
  br label %36

36:                                               ; preds = %35
  br label %37

37:                                               ; preds = %36
  br label %38

38:                                               ; preds = %37
  %39 = load i64, ptr @H5E_ATTR_g, align 8, !tbaa !14
  %40 = load i64, ptr @H5E_CANTCOPY_g, align 8, !tbaa !14
  %41 = call i32 (ptr, ptr, i32, i64, i64, ptr, ...) @H5E_printf_stack(ptr noundef @.str.1, ptr noundef @__func__.H5O__attr_post_copy_file, i32 noundef 722, i64 noundef %39, i64 noundef %40, ptr noundef @.str.35)
  br label %42

42:                                               ; preds = %38
  br label %43

43:                                               ; preds = %42
  store i8 1, ptr %12, align 1, !tbaa !19
  %44 = load i8, ptr %12, align 1, !tbaa !19, !range !21, !noundef !22
  %45 = trunc i8 %44 to i1
  %46 = zext i1 %45 to i8
  store i8 %46, ptr %12, align 1, !tbaa !19
  br label %47

47:                                               ; preds = %43
  br label %48

48:                                               ; preds = %47
  br label %49

49:                                               ; preds = %48
  store i32 -1, ptr %11, align 4, !tbaa !10
  br label %55

50:                                               ; No predecessors!
  br label %51

51:                                               ; preds = %50
  br label %52

52:                                               ; preds = %51
  br label %53

53:                                               ; preds = %52
  br label %54

54:                                               ; preds = %53, %27
  br label %55

55:                                               ; preds = %54, %49
  br label %56

56:                                               ; preds = %55, %19
  %57 = load i32, ptr %11, align 4, !tbaa !10
  call void @llvm.lifetime.end.p0(i64 1, ptr %12) #9
  call void @llvm.lifetime.end.p0(i64 4, ptr %11) #9
  ret i32 %57
}

; Function Attrs: inlinehint nounwind uwtable
define internal i32 @H5O__attr_shared_post_copy_file(ptr noundef %0, ptr noundef %1, ptr noundef %2, ptr noundef %3, ptr noundef %4, ptr noundef %5) #0 {
  %7 = alloca ptr, align 8
  %8 = alloca ptr, align 8
  %9 = alloca ptr, align 8
  %10 = alloca ptr, align 8
  %11 = alloca ptr, align 8
  %12 = alloca ptr, align 8
  %13 = alloca ptr, align 8
  %14 = alloca ptr, align 8
  %15 = alloca i32, align 4
  %16 = alloca i8, align 1
  store ptr %0, ptr %7, align 8, !tbaa !48
  store ptr %1, ptr %8, align 8, !tbaa !18
  store ptr %2, ptr %9, align 8, !tbaa !48
  store ptr %3, ptr %10, align 8, !tbaa !18
  store ptr %4, ptr %11, align 8, !tbaa !12
  store ptr %5, ptr %12, align 8, !tbaa !31
  call void @llvm.lifetime.start.p0(i64 8, ptr %13) #9
  %17 = load ptr, ptr %8, align 8, !tbaa !18
  store ptr %17, ptr %13, align 8, !tbaa !23
  call void @llvm.lifetime.start.p0(i64 8, ptr %14) #9
  %18 = load ptr, ptr %10, align 8, !tbaa !18
  store ptr %18, ptr %14, align 8, !tbaa !23
  call void @llvm.lifetime.start.p0(i64 4, ptr %15) #9
  store i32 0, ptr %15, align 4, !tbaa !10
  call void @llvm.lifetime.start.p0(i64 1, ptr %16) #9
  store i8 0, ptr %16, align 1, !tbaa !19
  %19 = load i8, ptr @H5O_init_g, align 1, !tbaa !19, !range !21, !noundef !22
  %20 = trunc i8 %19 to i1
  br i1 %20, label %25, label %21

21:                                               ; preds = %6
  %22 = load i8, ptr @H5_libterm_g, align 1, !tbaa !19, !range !21, !noundef !22
  %23 = trunc i8 %22 to i1
  %24 = xor i1 %23, true
  br label %25

25:                                               ; preds = %21, %6
  %26 = phi i1 [ true, %6 ], [ %24, %21 ]
  %27 = xor i1 %26, true
  %28 = xor i1 %27, true
  %29 = zext i1 %28 to i32
  %30 = sext i32 %29 to i64
  %31 = call i64 @llvm.expect.i64(i64 %30, i64 1)
  %32 = icmp ne i64 %31, 0
  br i1 %32, label %33, label %91

33:                                               ; preds = %25
  %34 = load ptr, ptr %7, align 8, !tbaa !48
  %35 = load ptr, ptr %8, align 8, !tbaa !18
  %36 = load ptr, ptr %9, align 8, !tbaa !48
  %37 = load ptr, ptr %10, align 8, !tbaa !18
  %38 = load ptr, ptr %12, align 8, !tbaa !31
  %39 = call i32 @H5O__attr_post_copy_file(ptr noundef %34, ptr noundef %35, ptr noundef %36, ptr noundef %37, ptr noundef %38)
  %40 = icmp slt i32 %39, 0
  br i1 %40, label %41, label %60

41:                                               ; preds = %33
  br label %42

42:                                               ; preds = %41
  br label %43

43:                                               ; preds = %42
  br label %44

44:                                               ; preds = %43
  %45 = load i64, ptr @H5E_OHDR_g, align 8, !tbaa !14
  %46 = load i64, ptr @H5E_CANTCOPY_g, align 8, !tbaa !14
  %47 = call i32 (ptr, ptr, i32, i64, i64, ptr, ...) @H5E_printf_stack(ptr noundef @.str.4, ptr noundef @__func__.H5O__attr_shared_post_copy_file, i32 noundef 375, i64 noundef %45, i64 noundef %46, ptr noundef @.str.32)
  br label %48

48:                                               ; preds = %44
  br label %49

49:                                               ; preds = %48
  store i8 1, ptr %16, align 1, !tbaa !19
  %50 = load i8, ptr %16, align 1, !tbaa !19, !range !21, !noundef !22
  %51 = trunc i8 %50 to i1
  %52 = zext i1 %51 to i8
  store i8 %52, ptr %16, align 1, !tbaa !19
  br label %53

53:                                               ; preds = %49
  br label %54

54:                                               ; preds = %53
  br label %55

55:                                               ; preds = %54
  store i32 -1, ptr %15, align 4, !tbaa !10
  br label %90

56:                                               ; No predecessors!
  br label %57

57:                                               ; preds = %56
  br label %58

58:                                               ; preds = %57
  br label %59

59:                                               ; preds = %58
  br label %60

60:                                               ; preds = %59, %33
  %61 = load ptr, ptr %9, align 8, !tbaa !48
  %62 = getelementptr inbounds nuw %struct.H5O_loc_t, ptr %61, i32 0, i32 0
  %63 = load ptr, ptr %62, align 8, !tbaa !50
  %64 = load ptr, ptr %13, align 8, !tbaa !23
  %65 = load ptr, ptr %14, align 8, !tbaa !23
  %66 = load ptr, ptr %11, align 8, !tbaa !12
  %67 = load ptr, ptr %12, align 8, !tbaa !31
  %68 = call i32 @H5O__shared_post_copy_file(ptr noundef %63, ptr noundef @H5O_MSG_ATTR, ptr noundef %64, ptr noundef %65, ptr noundef %66, ptr noundef %67)
  %69 = icmp slt i32 %68, 0
  br i1 %69, label %70, label %89

70:                                               ; preds = %60
  br label %71

71:                                               ; preds = %70
  br label %72

72:                                               ; preds = %71
  br label %73

73:                                               ; preds = %72
  %74 = load i64, ptr @H5E_OHDR_g, align 8, !tbaa !14
  %75 = load i64, ptr @H5E_WRITEERROR_g, align 8, !tbaa !14
  %76 = call i32 (ptr, ptr, i32, i64, i64, ptr, ...) @H5E_printf_stack(ptr noundef @.str.4, ptr noundef @__func__.H5O__attr_shared_post_copy_file, i32 noundef 383, i64 noundef %74, i64 noundef %75, ptr noundef @.str.36)
  br label %77

77:                                               ; preds = %73
  br label %78

78:                                               ; preds = %77
  store i8 1, ptr %16, align 1, !tbaa !19
  %79 = load i8, ptr %16, align 1, !tbaa !19, !range !21, !noundef !22
  %80 = trunc i8 %79 to i1
  %81 = zext i1 %80 to i8
  store i8 %81, ptr %16, align 1, !tbaa !19
  br label %82

82:                                               ; preds = %78
  br label %83

83:                                               ; preds = %82
  br label %84

84:                                               ; preds = %83
  store i32 -1, ptr %15, align 4, !tbaa !10
  br label %90

85:                                               ; No predecessors!
  br label %86

86:                                               ; preds = %85
  br label %87

87:                                               ; preds = %86
  br label %88

88:                                               ; preds = %87
  br label %89

89:                                               ; preds = %88, %60
  br label %90

90:                                               ; preds = %89, %84, %55
  br label %91

91:                                               ; preds = %90, %25
  %92 = load i32, ptr %15, align 4, !tbaa !10
  call void @llvm.lifetime.end.p0(i64 1, ptr %16) #9
  call void @llvm.lifetime.end.p0(i64 4, ptr %15) #9
  call void @llvm.lifetime.end.p0(i64 8, ptr %14) #9
  call void @llvm.lifetime.end.p0(i64 8, ptr %13) #9
  ret i32 %92
}