; Function Attrs: inlinehint nounwind uwtable
define internal range(i32 -1, 1) i32 @H5O__attr_shared_post_copy_file(ptr noundef %0, ptr noundef %1, ptr noundef %2, ptr noundef %3, ptr noundef %4, ptr noundef %5) #0 {
  %7 = load i8, ptr @H5O_init_g, align 1, !tbaa !3, !range !7, !noundef !8
  %8 = trunc nuw i8 %7 to i1
  %9 = load i8, ptr @H5_libterm_g, align 1, !range !7
  %10 = trunc nuw i8 %9 to i1
  %11 = xor i1 %10, true
  %12 = select i1 %8, i1 true, i1 %11
  br i1 %12, label %13, label %30, !prof !9

13:                                               ; preds = %6
  %14 = tail call i32 @H5A__attr_post_copy_file(ptr noundef %0, ptr noundef %1, ptr noundef %2, ptr noundef %3, ptr noundef %5) #12
  %15 = icmp slt i32 %14, 0
  br i1 %15, label %16, label %H5O__attr_post_copy_file.exit

16:                                               ; preds = %13
  %17 = load i64, ptr @H5E_ATTR_g, align 8, !tbaa !10
  %18 = load i64, ptr @H5E_CANTCOPY_g, align 8, !tbaa !10
  %19 = tail call i32 (ptr, ptr, i32, i64, i64, ptr, ...) @H5E_printf_stack(ptr noundef nonnull @.str.1, ptr noundef nonnull @__func__.H5O__attr_post_copy_file, i32 noundef 722, i64 noundef %17, i64 noundef %18, ptr noundef nonnull @.str.35) #12
  %20 = load i64, ptr @H5E_OHDR_g, align 8, !tbaa !10
  %21 = load i64, ptr @H5E_CANTCOPY_g, align 8, !tbaa !10
  %22 = tail call i32 (ptr, ptr, i32, i64, i64, ptr, ...) @H5E_printf_stack(ptr noundef nonnull @.str.4, ptr noundef nonnull @__func__.H5O__attr_shared_post_copy_file, i32 noundef 375, i64 noundef %20, i64 noundef %21, ptr noundef nonnull @.str.32) #12
  br label %30

H5O__attr_post_copy_file.exit:                    ; preds = %13
  %23 = load ptr, ptr %2, align 8, !tbaa !50
  %24 = tail call i32 @H5O__shared_post_copy_file(ptr noundef %23, ptr noundef nonnull @H5O_MSG_ATTR, ptr noundef %1, ptr noundef %3, ptr noundef %4, ptr noundef %5) #12
  %25 = icmp slt i32 %24, 0
  br i1 %25, label %26, label %30

26:                                               ; preds = %H5O__attr_post_copy_file.exit
  %27 = load i64, ptr @H5E_OHDR_g, align 8, !tbaa !10
  %28 = load i64, ptr @H5E_WRITEERROR_g, align 8, !tbaa !10
  %29 = tail call i32 (ptr, ptr, i32, i64, i64, ptr, ...) @H5E_printf_stack(ptr noundef nonnull @.str.4, ptr noundef nonnull @__func__.H5O__attr_shared_post_copy_file, i32 noundef 383, i64 noundef %27, i64 noundef %28, ptr noundef nonnull @.str.36) #12
  br label %30

30:                                               ; preds = %16, %26, %H5O__attr_post_copy_file.exit, %6
  %.0 = phi i32 [ -1, %16 ], [ -1, %26 ], [ 0, %H5O__attr_post_copy_file.exit ], [ 0, %6 ]
  ret i32 %.0
}